; Function Attrs: mustprogress uwtable
define dso_local void @_ZNK28cmNinjaNormalTargetGenerator22TextStubsGeneratorRuleERKNSt7__cxx1112basic_stringIcSt11char_traitsIcESaIcEEE(ptr dead_on_unwind noalias writable sret(%"class.std::__cxx11::basic_string") align 8 %0, ptr nocapture noundef nonnull readonly align 8 dereferenceable(272) %1, ptr noundef nonnull align 8 dereferenceable(32) %2) local_unnamed_addr #3 align 2 personality ptr @__gxx_personality_v0 {
  %4 = alloca [4 x %"struct.std::pair.752"], align 8
  %5 = alloca %class.cmAlphaNum, align 8
  %6 = alloca %"class.std::__cxx11::basic_string", align 8
  %7 = getelementptr inbounds i8, ptr %1, i64 8
  %8 = load ptr, ptr %7, align 8
  %9 = tail call noundef nonnull align 8 dereferenceable(32) ptr @_ZNK17cmGeneratorTarget7GetNameB5cxx11Ev(ptr noundef nonnull align 8 dereferenceable(2728) %8)
  call void @_ZN22cmGlobalNinjaGenerator14EncodeRuleNameERKNSt7__cxx1112basic_stringIcSt11char_traitsIcESaIcEEE(ptr dead_on_unwind nonnull writable sret(%"class.std::__cxx11::basic_string") align 8 %6, ptr noundef nonnull align 8 dereferenceable(32) %9)
  call void @llvm.lifetime.start.p0(i64 96, ptr nonnull %4)
  call void @llvm.lifetime.start.p0(i64 56, ptr nonnull %5)
  store i64 22, ptr %4, align 8, !alias.scope !391, !noalias !394
  %.sroa.2.0..sroa_idx.i.i = getelementptr inbounds i8, ptr %4, i64 8
  store ptr @.str.15, ptr %.sroa.2.0..sroa_idx.i.i, align 8, !alias.scope !391, !noalias !394
  %10 = getelementptr inbounds i8, ptr %4, i64 16
  store ptr null, ptr %10, align 8, !alias.scope !391, !noalias !394
  %11 = getelementptr inbounds i8, ptr %4, i64 24
  call void @llvm.experimental.noalias.scope.decl(metadata !397)
  %12 = call { i64, ptr } @_ZNKSt7__cxx1112basic_stringIcSt11char_traitsIcESaIcEEcvSt17basic_string_viewIcS2_EEv(ptr noundef nonnull align 8 dereferenceable(32) %6) #17, !noalias !400
  %13 = extractvalue { i64, ptr } %12, 0
  %14 = extractvalue { i64, ptr } %12, 1
  store i64 %13, ptr %11, align 8, !alias.scope !397, !noalias !394
  %.sroa.2.0..sroa_idx.i8.i = getelementptr inbounds i8, ptr %4, i64 32
  store ptr %14, ptr %.sroa.2.0..sroa_idx.i8.i, align 8, !alias.scope !397, !noalias !394
  %15 = getelementptr inbounds i8, ptr %4, i64 40
  store ptr %6, ptr %15, align 8, !alias.scope !397, !noalias !394
  %16 = getelementptr inbounds i8, ptr %4, i64 48
  store ptr null, ptr %5, align 8, !noalias !394
  %17 = getelementptr inbounds i8, ptr %5, i64 8
  %18 = getelementptr inbounds i8, ptr %5, i64 24
  store i64 1, ptr %17, align 8, !noalias !394
  %19 = getelementptr inbounds i8, ptr %5, i64 16
  store ptr %18, ptr %19, align 8, !noalias !394
  store i8 95, ptr %18, align 8, !noalias !394
  store i64 1, ptr %16, align 8, !alias.scope !401, !noalias !394
  %.sroa.2.0..sroa_idx.i17.i = getelementptr inbounds i8, ptr %4, i64 56
  store ptr %18, ptr %.sroa.2.0..sroa_idx.i17.i, align 8, !alias.scope !401, !noalias !394
  %20 = getelementptr inbounds i8, ptr %4, i64 64
  store ptr null, ptr %20, align 8, !alias.scope !401, !noalias !394
  %21 = getelementptr inbounds i8, ptr %4, i64 72
  %22 = call { i64, ptr } @_ZNKSt7__cxx1112basic_stringIcSt11char_traitsIcESaIcEEcvSt17basic_string_viewIcS2_EEv(ptr noundef nonnull align 8 dereferenceable(32) %2) #17, !noalias !394
  %23 = extractvalue { i64, ptr } %22, 0
  %24 = extractvalue { i64, ptr } %22, 1
  store i64 %23, ptr %21, align 8, !alias.scope !404, !noalias !394
  %.sroa.2.0..sroa_idx.i26.i = getelementptr inbounds i8, ptr %4, i64 80
  store ptr %24, ptr %.sroa.2.0..sroa_idx.i26.i, align 8, !alias.scope !404, !noalias !394
  %25 = getelementptr inbounds i8, ptr %4, i64 88
  store ptr null, ptr %25, align 8, !alias.scope !404, !noalias !394
  invoke void @_Z10cmCatViewsSt16initializer_listISt4pairISt17basic_string_viewIcSt11char_traitsIcEEPNSt7__cxx1112basic_stringIcS3_SaIcEEEEE(ptr dead_on_unwind writable sret(%"class.std::__cxx11::basic_string") align 8 %0, ptr nonnull %4, i64 4)
          to label %26 unwind label %27

26:                                               ; preds = %3
  call void @llvm.lifetime.end.p0(i64 96, ptr nonnull %4)
  call void @llvm.lifetime.end.p0(i64 56, ptr nonnull %5)
  call void @_ZNSt7__cxx1112basic_stringIcSt11char_traitsIcESaIcEED1Ev(ptr noundef nonnull align 8 dereferenceable(32) %6) #17
  ret void

27:                                               ; preds = %3
  %28 = landingpad { ptr, i32 }
          cleanup
  call void @_ZNSt7__cxx1112basic_stringIcSt11char_traitsIcESaIcEED1Ev(ptr noundef nonnull align 8 dereferenceable(32) %6) #17
  resume { ptr, i32 } %28
}